; ModuleID = '22/358.c'
source_filename = "22/358.c"
target datalayout = "e-m:e-p270:32:32-p271:32:32-p272:64:64-i64:64-f80:128-n8:16:32:64-S128"
target triple = "x86_64-pc-linux-gnu"

@.str = private unnamed_addr constant [3 x i8] c"%d\00", align 1
@.str.1 = private unnamed_addr constant [4 x i8] c"No\0A\00", align 1
@.str.2 = private unnamed_addr constant [4 x i8] c"%d\0A\00", align 1

; Function Attrs: noinline nounwind uwtable
define dso_local void @main() #0 {
  %1 = alloca [301 x i32], align 16
  %2 = alloca i32, align 4
  %3 = alloca i32, align 4
  %4 = alloca i32, align 4
  %5 = alloca i32, align 4
  %6 = alloca i8, align 1
  %7 = alloca i32, align 4
  %8 = alloca i32, align 4
  store i32 0, i32* %2, align 4
  store i32 0, i32* %5, align 4
  br label %9

9:                                                ; preds = %16, %0
  %10 = load i32, i32* %2, align 4
  %11 = sext i32 %10 to i64
  %12 = getelementptr inbounds [301 x i32], [301 x i32]* %1, i64 0, i64 %11
  %13 = call i32 (i8*, ...) @__isoc99_scanf(i8* getelementptr inbounds ([3 x i8], [3 x i8]* @.str, i64 0, i64 0), i32* %12)
  %14 = load i32, i32* %2, align 4
  %15 = add nsw i32 %14, 1
  store i32 %15, i32* %2, align 4
  br label %16

16:                                               ; preds = %9
  %17 = call i32 @getchar()
  %18 = trunc i32 %17 to i8
  store i8 %18, i8* %6, align 1
  %19 = sext i8 %18 to i32
  %20 = icmp ne i32 %19, 10
  br i1 %20, label %9, label %21

21:                                               ; preds = %16
  store i32 1, i32* %4, align 4
  br label %22

22:                                               ; preds = %42, %21
  %23 = load i32, i32* %4, align 4
  %24 = load i32, i32* %2, align 4
  %25 = icmp slt i32 %23, %24
  br i1 %25, label %26, label %45

26:                                               ; preds = %22
  %27 = load i32, i32* %4, align 4
  %28 = sext i32 %27 to i64
  %29 = getelementptr inbounds [301 x i32], [301 x i32]* %1, i64 0, i64 %28
  %30 = load i32, i32* %29, align 4
  %31 = load i32, i32* %4, align 4
  %32 = sub nsw i32 %31, 1
  %33 = sext i32 %32 to i64
  %34 = getelementptr inbounds [301 x i32], [301 x i32]* %1, i64 0, i64 %33
  %35 = load i32, i32* %34, align 4
  %36 = icmp ne i32 %30, %35
  br i1 %36, label %37, label %40

37:                                               ; preds = %26
  %38 = load i32, i32* %5, align 4
  %39 = add nsw i32 %38, 1
  store i32 %39, i32* %5, align 4
  br label %45

40:                                               ; preds = %26
  store i32 0, i32* %5, align 4
  br label %41

41:                                               ; preds = %40
  br label %42

42:                                               ; preds = %41
  %43 = load i32, i32* %4, align 4
  %44 = add nsw i32 %43, 1
  store i32 %44, i32* %4, align 4
  br label %22

45:                                               ; preds = %37, %22
  %46 = load i32, i32* %2, align 4
  %47 = icmp eq i32 %46, 1
  br i1 %47, label %51, label %48

48:                                               ; preds = %45
  %49 = load i32, i32* %5, align 4
  %50 = icmp eq i32 %49, 0
  br i1 %50, label %51, label %53

51:                                               ; preds = %48, %45
  %52 = call i32 (i8*, ...) @printf(i8* getelementptr inbounds ([4 x i8], [4 x i8]* @.str.1, i64 0, i64 0))
  br label %101

53:                                               ; preds = %48
  store i32 0, i32* %7, align 4
  store i32 1, i32* %8, align 4
  %54 = load i32, i32* %5, align 4
  %55 = sub nsw i32 %54, 1
  store i32 %55, i32* %3, align 4
  br label %56

56:                                               ; preds = %95, %53
  %57 = load i32, i32* %3, align 4
  %58 = load i32, i32* %2, align 4
  %59 = icmp slt i32 %57, %58
  br i1 %59, label %60, label %98

60:                                               ; preds = %56
  %61 = load i32, i32* %3, align 4
  %62 = sext i32 %61 to i64
  %63 = getelementptr inbounds [301 x i32], [301 x i32]* %1, i64 0, i64 %62
  %64 = load i32, i32* %63, align 4
  %65 = load i32, i32* %7, align 4
  %66 = icmp sgt i32 %64, %65
  br i1 %66, label %67, label %79

67:                                               ; preds = %60
  %68 = load i32, i32* %3, align 4
  %69 = sext i32 %68 to i64
  %70 = getelementptr inbounds [301 x i32], [301 x i32]* %1, i64 0, i64 %69
  %71 = load i32, i32* %70, align 4
  %72 = load i32, i32* %8, align 4
  %73 = icmp slt i32 %71, %72
  br i1 %73, label %74, label %79

74:                                               ; preds = %67
  %75 = load i32, i32* %3, align 4
  %76 = sext i32 %75 to i64
  %77 = getelementptr inbounds [301 x i32], [301 x i32]* %1, i64 0, i64 %76
  %78 = load i32, i32* %77, align 4
  store i32 %78, i32* %7, align 4
  br label %94

79:                                               ; preds = %67, %60
  %80 = load i32, i32* %3, align 4
  %81 = sext i32 %80 to i64
  %82 = getelementptr inbounds [301 x i32], [301 x i32]* %1, i64 0, i64 %81
  %83 = load i32, i32* %82, align 4
  %84 = load i32, i32* %8, align 4
  %85 = icmp sgt i32 %83, %84
  br i1 %85, label %86, label %92

86:                                               ; preds = %79
  %87 = load i32, i32* %8, align 4
  store i32 %87, i32* %7, align 4
  %88 = load i32, i32* %3, align 4
  %89 = sext i32 %88 to i64
  %90 = getelementptr inbounds [301 x i32], [301 x i32]* %1, i64 0, i64 %89
  %91 = load i32, i32* %90, align 4
  store i32 %91, i32* %8, align 4
  br label %93

92:                                               ; preds = %79
  br label %95

93:                                               ; preds = %86
  br label %94

94:                                               ; preds = %93, %74
  br label %95

95:                                               ; preds = %94, %92
  %96 = load i32, i32* %3, align 4
  %97 = add nsw i32 %96, 1
  store i32 %97, i32* %3, align 4
  br label %56

98:                                               ; preds = %56
  %99 = load i32, i32* %7, align 4
  %100 = call i32 (i8*, ...) @printf(i8* getelementptr inbounds ([4 x i8], [4 x i8]* @.str.2, i64 0, i64 0), i32 %99)
  br label %101

101:                                              ; preds = %98, %51
  ret void
}

declare dso_local i32 @__isoc99_scanf(i8*, ...) #1

declare dso_local i32 @getchar() #1

declare dso_local i32 @printf(i8*, ...) #1


!llvm.module.flags = !{!0}
!llvm.ident = !{!1}

!0 = !{i32 1, !"wchar_size", i32 4}
!1 = !{!"clang version 10.0.0-4ubuntu1 "}
